; Function Attrs: mustprogress nounwind uwtable
define void @_ZN13sentencepiece10normalizer10NormalizerD2Ev(ptr noundef nonnull align 8 dereferenceable(56) initializes((0, 8)) %0) unnamed_addr #4 align 2 {
  store ptr getelementptr inbounds nuw inrange(-16, 48) (i8, ptr @_ZTVN13sentencepiece10normalizer10NormalizerE, i64 16), ptr %0, align 8, !tbaa !3
  %2 = getelementptr inbounds nuw i8, ptr %0, i64 48
  tail call void @_ZN13sentencepiece4util6StatusD1Ev(ptr noundef nonnull align 8 dereferenceable(8) %2) #25
  %3 = getelementptr inbounds nuw i8, ptr %0, i64 8
  %4 = load ptr, ptr %3, align 8, !tbaa !52
  %.not.i = icmp eq ptr %4, null
  br i1 %.not.i, label %_ZNSt10unique_ptrIN5Darts15DoubleArrayImplIvvivEESt14default_deleteIS2_EED2Ev.exit, label %_ZNKSt14default_deleteIN5Darts15DoubleArrayImplIvvivEEEclEPS2_.exit.i

_ZNKSt14default_deleteIN5Darts15DoubleArrayImplIvvivEEEclEPS2_.exit.i: ; preds = %1
  %5 = load ptr, ptr %4, align 8, !tbaa !3
  %6 = getelementptr inbounds nuw i8, ptr %5, i64 8
  %7 = load ptr, ptr %6, align 8
  tail call void %7(ptr noundef nonnull align 8 dereferenceable(32) %4) #25
  br label %_ZNSt10unique_ptrIN5Darts15DoubleArrayImplIvvivEESt14default_deleteIS2_EED2Ev.exit

_ZNSt10unique_ptrIN5Darts15DoubleArrayImplIvvivEESt14default_deleteIS2_EED2Ev.exit: ; preds = %1, %_ZNKSt14default_deleteIN5Darts15DoubleArrayImplIvvivEEEclEPS2_.exit.i
  store ptr null, ptr %3, align 8, !tbaa !52
  ret void
}